Certificate:
    Data:
        Version: 3 (0x2)
        Serial Number: 4096 (0x1000)
        Signature Algorithm: sha256WithRSAEncryption
        Issuer: C=IN, ST=UK, L=NTL, O=ORG1, OU=ORGUNIT1, CN=GROUP1/emailAddress=ABC@GMAIL.COM
        Validity
            Not Before: Jun 26 19:26:58 2025 GMT
            Not After : Jun 26 19:26:58 2026 GMT
        Subject: CN=GROUP2, ST=UP, O=ORG2, OU=ORGUNIT2/emailAddress=XYZ@GMAIL.COM, C=IN
        Subject Public Key Info:
            Public Key Algorithm: rsaEncryption
                Public-Key: (2048 bit)
                Modulus:
                    00:a3:e4:2c:66:73:3d:0b:b7:e4:a1:23:f7:f5:35:
                    6f:b4:a6:71:cb:89:13:ce:8a:05:40:42:2d:cf:1d:
                    8f:31:86:5e:1b:9a:7e:ad:54:70:d7:da:f4:4c:2d:
                    55:81:ef:b2:f9:46:1d:d1:3a:11:34:ad:27:5c:3c:
                    64:c8:45:b9:fa:36:69:1d:5a:e7:6f:01:ce:59:3a:
                    23:0c:9a:e4:07:4d:0e:19:b3:a0:f9:09:9b:6a:bf:
                    7c:dc:4a:f8:4f:a2:97:7e:c3:7b:f1:42:bf:e9:5d:
                    02:6f:8c:fb:0c:1f:41:78:d4:df:69:5b:5c:de:fc:
                    b5:6d:0c:c0:3f:cb:3c:81:a9:51:01:ea:e3:45:8b:
                    79:31:14:34:c2:42:28:39:b3:44:08:d4:09:78:63:
                    45:6e:44:d8:37:7a:1b:6f:ad:04:13:05:1e:04:e0:
                    2e:f4:7f:72:85:2d:bc:d0:ca:a5:38:68:46:ad:f7:
                    c7:9e:b9:b1:d9:b5:74:91:a1:c7:63:cb:4e:61:8b:
                    62:1c:3e:3a:58:14:10:da:c6:3f:d8:66:04:d1:1a:
                    66:f4:dc:c2:64:29:79:74:f9:de:ab:59:86:02:f8:
                    cf:5a:5b:2a:14:f8:1f:61:99:3a:31:2d:5f:c9:4c:
                    db:25:0f:aa:ec:02:40:38:f6:41:0c:f7:a9:cc:5e:
                    4e:87
                Exponent: 65537 (0x10001)
        X509v3 extensions:
            X509v3 Basic Constraints: 
                CA:FALSE
            X509v3 Key Usage: 
                Digital Signature, Key Encipherment
            X509v3 Subject Key Identifier: 
                69:39:54:BD:44:55:29:E5:59:9D:6B:07:C3:FB:0C:0D:8D:99:E6:B6
            X509v3 Authority Key Identifier: 
                91:42:1C:48:BE:26:C1:E2:FB:83:D0:47:A0:0F:7C:9B:10:FA:9A:69
    Signature Algorithm: sha256WithRSAEncryption
    Signature Value:
        64:96:30:b7:ad:70:fb:6e:87:e7:ce:d7:85:47:6e:b2:8f:74:
        0e:62:f4:89:c3:ef:23:7c:91:04:ae:45:9e:1b:32:d9:95:13:
        f1:80:6a:80:04:c9:82:46:93:9f:ca:fd:14:ea:64:0b:53:0b:
        fb:63:17:a9:d2:2d:e9:a8:d4:19:43:d5:61:96:3b:83:d7:dc:
        7c:2c:3e:c9:3e:b3:e8:b5:c9:f8:05:98:93:ba:6f:d4:6e:2c:
        9f:f4:33:42:f5:2b:e4:ed:49:8d:7b:5f:49:7d:56:fb:31:fa:
        a3:bb:83:07:0c:c9:21:a2:f1:2e:3f:71:0a:05:42:9e:37:c5:
        79:be:17:47:e7:c6:4f:72:3d:9d:be:4f:68:a0:23:cc:74:1e:
        47:81:96:92:df:25:06:e6:ac:6b:89:50:ae:ba:0d:85:66:3c:
        ac:75:d0:6b:8f:05:3d:5f:a4:04:d3:d6:20:35:91:50:3a:f5:
        87:5e:cb:c6:85:ee:c6:85:f7:4d:1d:ae:1d:0f:9f:c7:24:31:
        92:8c:35:d0:28:d6:92:46:b4:31:c3:25:b0:e9:9e:ba:38:2b:
        11:eb:b8:28:b6:9f:60:a1:a4:30:4a:16:be:46:b4:0b:fc:35:
        2c:d3:fa:8c:b1:92:82:fc:98:3d:e6:ae:0a:16:5c:4a:17:89:
        31:a9:c3:59:8d:f7:c7:63:28:c5:ea:a2:90:21:14:ec:84:fa:
        90:a1:bc:23:04:0d:fb:dc:5e:2d:d3:2e:7c:27:52:7a:7d:63:
        e7:3d:72:d3:c1:6e:39:a6:b0:a1:b4:3a:7b:36:00:93:31:6b:
        97:d1:02:a4:0d:72:6e:61:b7:3d:72:de:45:5a:6d:e1:81:91:
        07:44:8a:b6:f3:e9:cd:4e:12:92:48:25:f2:e0:8f:fb:49:16:
        ca:3d:59:2a:57:ff:ae:de:12:6f:4d:e2:2c:99:3b:2a:e9:9f:
        c4:cc:59:d5:45:ed:a1:ec:c7:90:7a:84:98:23:6e:d4:64:de:
        25:40:ac:cd:d3:d2:c0:ae:32:23:5e:d7:03:74:ee:e9:eb:18:
        bd:85:d0:8e:a0:60:7a:3f:12:5a:90:60:90:36:fe:6e:c4:a8:
        ac:eb:df:9e:2a:88:6b:eb:f4:86:40:89:39:5f:c9:5c:cc:43:
        33:ea:66:73:74:f4:74:d6:69:8a:69:03:f1:d7:c4:d6:15:bb:
        1b:42:26:82:4d:fe:1a:e1:d9:56:6b:2d:cd:bb:d6:a8:40:54:
        90:ca:8c:42:09:83:16:bc:6e:16:05:af:3b:79:93:ec:c4:8d:
        ee:f9:1b:23:fd:f4:aa:d1:bc:9b:e3:82:e1:dd:2b:92:84:8e:
        de:dd:44:b4:51:ac:24:66
-----BEGIN CERTIFICATE-----
MIIEujCCAqKgAwIBAgICEAAwDQYJKoZIhvcNAQELBQAweTELMAkGA1UEBhMCSU4x
CzAJBgNVBAgMAlVLMQwwCgYDVQQHDANOVEwxDTALBgNVBAoMBE9SRzExETAPBgNV
BAsMCE9SR1VOSVQxMQ8wDQYDVQQDDAZHUk9VUDExHDAaBgkqhkiG9w0BCQEWDUFC
Q0BHTUFJTC5DT00wHhcNMjUwNjI2MTkyNjU4WhcNMjYwNjI2MTkyNjU4WjBrMQ8w
DQYDVQQDDAZHUk9VUDIxCzAJBgNVBAgMAlVQMQ0wCwYDVQQKDARPUkcyMREwDwYD
VQQLDAhPUkdVTklUMjEcMBoGCSqGSIb3DQEJARYNWFlaQEdNQUlMLkNPTTELMAkG
A1UEBhMCSU4wggEiMA0GCSqGSIb3DQEBAQUAA4IBDwAwggEKAoIBAQCj5Cxmcz0L
t+ShI/f1NW+0pnHLiRPOigVAQi3PHY8xhl4bmn6tVHDX2vRMLVWB77L5Rh3ROhE0
rSdcPGTIRbn6NmkdWudvAc5ZOiMMmuQHTQ4Zs6D5CZtqv3zcSvhPopd+w3vxQr/p
XQJvjPsMH0F41N9pW1ze/LVtDMA/yzyBqVEB6uNFi3kxFDTCQig5s0QI1Al4Y0Vu
RNg3ehtvrQQTBR4E4C70f3KFLbzQyqU4aEat98eeubHZtXSRocdjy05hi2IcPjpY
FBDaxj/YZgTRGmb03MJkKXl0+d6rWYYC+M9aWyoU+B9hmToxLV/JTNslD6rsAkA4
9kEM96nMXk6HAgMBAAGjWjBYMAkGA1UdEwQCMAAwCwYDVR0PBAQDAgWgMB0GA1Ud
DgQWBBRpOVS9RFUp5VmdawfD+wwNjZnmtjAfBgNVHSMEGDAWgBSRQhxIvibB4vuD
0EegD3ybEPqaaTANBgkqhkiG9w0BAQsFAAOCAgEAZJYwt61w+26H587XhUduso90
DmL0icPvI3yRBK5Fnhsy2ZUT8YBqgATJgkaTn8r9FOpkC1ML+2MXqdIt6ajUGUPV
YZY7g9fcfCw+yT6z6LXJ+AWYk7pv1G4sn/QzQvUr5O1JjXtfSX1W+zH6o7uDBwzJ
IaLxLj9xCgVCnjfFeb4XR+fGT3I9nb5PaKAjzHQeR4GWkt8lBuasa4lQrroNhWY8
rHXQa48FPV+kBNPWIDWRUDr1h17LxoXuxoX3TR2uHQ+fxyQxkow10CjWkka0McMl
sOmeujgrEeu4KLafYKGkMEoWvka0C/w1LNP6jLGSgvyYPeauChZcSheJManDWY33
x2MoxeqikCEU7IT6kKG8IwQN+9xeLdMufCdSen1j5z1y08FuOaawobQ6ezYAkzFr
l9ECpA1ybmG3PXLeRVpt4YGRB0SKtvPpzU4Skkgl8uCP+0kWyj1ZKlf/rt4Sb03i
LJk7KumfxMxZ1UXtoezHkHqEmCNu1GTeJUCszdPSwK4yI17XA3Tu6esYvYXQjqBg
ej8SWpBgkDb+bsSorOvfniqIa+v0hkCJOV/JXMxDM+pmc3T0dNZpimkD8dfE1hW7
G0Imgk3+GuHZVmstzbvWqEBUkMqMQgmDFrxuFgWvO3mT7MSN7vkbI/30qtG8m+OC
4d0rkoSO3t1EtFGsJGY=
-----END CERTIFICATE-----
